target datalayout = "e-m:e-p270:32:32-p271:32:32-p272:64:64-i64:64-i128:128-f80:128-n8:16:32:64-S128"
target triple = "x86_64-pc-linux-gnu"

%"struct.Yosys::RTLIL::IdString" = type { i32 }
%"class.__gnu_cxx::__normal_iterator.711" = type { ptr }
%"struct.__gnu_cxx::__ops::_Val_comp_iter.879" = type { i8 }

@_ZN5Yosys5RTLIL2ID8PRIORITYE = external global %"struct.Yosys::RTLIL::IdString", align 4

; Function Attrs: inlinehint mustprogress uwtable
define internal noundef zeroext i1 @_ZZN12_GLOBAL__N_112CxxrtlWorker21dump_cell_effect_syncERSt6vectorIPKN5Yosys5RTLIL4CellESaIS6_EEENKUlS6_S6_E_clES6_S6_(ptr noundef nonnull align 1 dereferenceable(1) %0, ptr noundef %1, ptr noundef %2) #9 align 2 {
  %4 = alloca ptr, align 8
  %5 = alloca ptr, align 8
  %6 = alloca ptr, align 8
  store ptr %0, ptr %4, align 8, !tbaa !469
  store ptr %1, ptr %5, align 8, !tbaa !176
  store ptr %2, ptr %6, align 8, !tbaa !176
  %7 = load ptr, ptr %5, align 8, !tbaa !176
  %8 = call noundef nonnull align 8 dereferenceable(40) ptr @_ZNK5Yosys5RTLIL4Cell8getParamERKNS0_8IdStringE(ptr noundef nonnull align 8 dereferenceable(192) %7, ptr noundef nonnull align 4 dereferenceable(4) @_ZN5Yosys5RTLIL2ID8PRIORITYE)
  %9 = call noundef i32 @_ZNK5Yosys5RTLIL5Const6as_intEb(ptr noundef nonnull align 8 dereferenceable(40) %8, i1 noundef zeroext false)
  %10 = load ptr, ptr %6, align 8, !tbaa !176
  %11 = call noundef nonnull align 8 dereferenceable(40) ptr @_ZNK5Yosys5RTLIL4Cell8getParamERKNS0_8IdStringE(ptr noundef nonnull align 8 dereferenceable(192) %10, ptr noundef nonnull align 4 dereferenceable(4) @_ZN5Yosys5RTLIL2ID8PRIORITYE)
  %12 = call noundef i32 @_ZNK5Yosys5RTLIL5Const6as_intEb(ptr noundef nonnull align 8 dereferenceable(40) %11, i1 noundef zeroext false)
  %13 = icmp sgt i32 %9, %12
  ret i1 %13
}

; Function Attrs: mustprogress uwtable
define internal noundef zeroext i1 @_ZN9__gnu_cxx5__ops14_Val_comp_iterIZN12_GLOBAL__N_112CxxrtlWorker21dump_cell_effect_syncERSt6vectorIPKN5Yosys5RTLIL4CellESaIS9_EEEUlS9_S9_E_EclIS9_NS_17__normal_iteratorIPS9_SB_EEEEbRT_T0_(ptr noundef nonnull align 1 dereferenceable(1) %0, ptr noundef nonnull align 8 dereferenceable(8) %1, ptr %2) #4 align 2 {
  %4 = alloca %"class.__gnu_cxx::__normal_iterator.711", align 8
  %5 = alloca ptr, align 8
  %6 = alloca ptr, align 8
  %7 = getelementptr inbounds nuw %"class.__gnu_cxx::__normal_iterator.711", ptr %4, i32 0, i32 0
  store ptr %2, ptr %7, align 8
  store ptr %0, ptr %5, align 8, !tbaa !2600
  store ptr %1, ptr %6, align 8, !tbaa !504
  %8 = load ptr, ptr %5, align 8
  %9 = load ptr, ptr %6, align 8, !tbaa !504
  %10 = load ptr, ptr %9, align 8, !tbaa !176
  %11 = call noundef nonnull align 8 dereferenceable(8) ptr @_ZNK9__gnu_cxx17__normal_iteratorIPPKN5Yosys5RTLIL4CellESt6vectorIS5_SaIS5_EEEdeEv(ptr noundef nonnull align 8 dereferenceable(8) %4) #3
  %12 = load ptr, ptr %11, align 8, !tbaa !176
  %13 = call noundef zeroext i1 @_ZZN12_GLOBAL__N_112CxxrtlWorker21dump_cell_effect_syncERSt6vectorIPKN5Yosys5RTLIL4CellESaIS6_EEENKUlS6_S6_E_clES6_S6_(ptr noundef nonnull align 1 dereferenceable(1) %8, ptr noundef %10, ptr noundef %12)
  ret i1 %13
}

; Function Attrs: mustprogress nounwind uwtable
define linkonce_odr noundef nonnull align 8 dereferenceable(8) ptr @_ZN9__gnu_cxx17__normal_iteratorIPPKN5Yosys5RTLIL4CellESt6vectorIS5_SaIS5_EEEmmEv(ptr noundef nonnull align 8 dereferenceable(8) %0) #6 comdat align 2 {
  %2 = alloca ptr, align 8
  store ptr %0, ptr %2, align 8, !tbaa !2120
  %3 = load ptr, ptr %2, align 8
  %4 = getelementptr inbounds nuw %"class.__gnu_cxx::__normal_iterator.711", ptr %3, i32 0, i32 0
  %5 = load ptr, ptr %4, align 8, !tbaa !2124
  %6 = getelementptr inbounds ptr, ptr %5, i32 -1
  store ptr %6, ptr %4, align 8, !tbaa !2124
  ret ptr %3
}

; Function Attrs: mustprogress nounwind uwtable
define linkonce_odr noundef nonnull align 8 dereferenceable(8) ptr @_ZNK9__gnu_cxx17__normal_iteratorIPPKN5Yosys5RTLIL4CellESt6vectorIS5_SaIS5_EEEdeEv(ptr noundef nonnull align 8 dereferenceable(8) %0) #6 comdat align 2 {
  %2 = alloca ptr, align 8
  store ptr %0, ptr %2, align 8, !tbaa !2120
  %3 = load ptr, ptr %2, align 8
  %4 = getelementptr inbounds nuw %"class.__gnu_cxx::__normal_iterator.711", ptr %3, i32 0, i32 0
  %5 = load ptr, ptr %4, align 8, !tbaa !2124
  ret ptr %5
}

; Function Attrs: mustprogress uwtable
define internal void @_ZSt25__unguarded_linear_insertIN9__gnu_cxx17__normal_iteratorIPPKN5Yosys5RTLIL4CellESt6vectorIS6_SaIS6_EEEENS0_5__ops14_Val_comp_iterIZN12_GLOBAL__N_112CxxrtlWorker21dump_cell_effect_syncERSA_EUlS6_S6_E_EEEvT_T0_(ptr %0) #4 {
  %2 = alloca %"class.__gnu_cxx::__normal_iterator.711", align 8
  %3 = alloca %"struct.__gnu_cxx::__ops::_Val_comp_iter.879", align 1
  %4 = alloca ptr, align 8
  %5 = alloca %"class.__gnu_cxx::__normal_iterator.711", align 8
  %6 = alloca %"class.__gnu_cxx::__normal_iterator.711", align 8
  %7 = getelementptr inbounds nuw %"class.__gnu_cxx::__normal_iterator.711", ptr %2, i32 0, i32 0
  store ptr %0, ptr %7, align 8
  call void @llvm.lifetime.start.p0(i64 8, ptr %4) #3
  %8 = call noundef nonnull align 8 dereferenceable(8) ptr @_ZNK9__gnu_cxx17__normal_iteratorIPPKN5Yosys5RTLIL4CellESt6vectorIS5_SaIS5_EEEdeEv(ptr noundef nonnull align 8 dereferenceable(8) %2) #3
  %9 = load ptr, ptr %8, align 8, !tbaa !176
  store ptr %9, ptr %4, align 8, !tbaa !176
  call void @llvm.lifetime.start.p0(i64 8, ptr %5) #3
  call void @llvm.memcpy.p0.p0.i64(ptr align 8 %5, ptr align 8 %2, i64 8, i1 false), !tbaa.struct !2152
  %10 = call noundef nonnull align 8 dereferenceable(8) ptr @_ZN9__gnu_cxx17__normal_iteratorIPPKN5Yosys5RTLIL4CellESt6vectorIS5_SaIS5_EEEmmEv(ptr noundef nonnull align 8 dereferenceable(8) %5) #3
  br label %11

11:                                               ; preds = %15, %1
  call void @llvm.memcpy.p0.p0.i64(ptr align 8 %6, ptr align 8 %5, i64 8, i1 false), !tbaa.struct !2152
  %12 = getelementptr inbounds nuw %"class.__gnu_cxx::__normal_iterator.711", ptr %6, i32 0, i32 0
  %13 = load ptr, ptr %12, align 8
  %14 = call noundef zeroext i1 @_ZN9__gnu_cxx5__ops14_Val_comp_iterIZN12_GLOBAL__N_112CxxrtlWorker21dump_cell_effect_syncERSt6vectorIPKN5Yosys5RTLIL4CellESaIS9_EEEUlS9_S9_E_EclIS9_NS_17__normal_iteratorIPS9_SB_EEEEbRT_T0_(ptr noundef nonnull align 1 dereferenceable(1) %3, ptr noundef nonnull align 8 dereferenceable(8) %4, ptr %13)
  br i1 %14, label %15, label %20

15:                                               ; preds = %11
  %16 = call noundef nonnull align 8 dereferenceable(8) ptr @_ZNK9__gnu_cxx17__normal_iteratorIPPKN5Yosys5RTLIL4CellESt6vectorIS5_SaIS5_EEEdeEv(ptr noundef nonnull align 8 dereferenceable(8) %5) #3
  %17 = load ptr, ptr %16, align 8, !tbaa !176
  %18 = call noundef nonnull align 8 dereferenceable(8) ptr @_ZNK9__gnu_cxx17__normal_iteratorIPPKN5Yosys5RTLIL4CellESt6vectorIS5_SaIS5_EEEdeEv(ptr noundef nonnull align 8 dereferenceable(8) %2) #3
  store ptr %17, ptr %18, align 8, !tbaa !176
  call void @llvm.memcpy.p0.p0.i64(ptr align 8 %2, ptr align 8 %5, i64 8, i1 false), !tbaa.struct !2152
  %19 = call noundef nonnull align 8 dereferenceable(8) ptr @_ZN9__gnu_cxx17__normal_iteratorIPPKN5Yosys5RTLIL4CellESt6vectorIS5_SaIS5_EEEmmEv(ptr noundef nonnull align 8 dereferenceable(8) %5) #3
  br label %11, !llvm.loop !2599

20:                                               ; preds = %11
  %21 = load ptr, ptr %4, align 8, !tbaa !176
  %22 = call noundef nonnull align 8 dereferenceable(8) ptr @_ZNK9__gnu_cxx17__normal_iteratorIPPKN5Yosys5RTLIL4CellESt6vectorIS5_SaIS5_EEEdeEv(ptr noundef nonnull align 8 dereferenceable(8) %2) #3
  store ptr %21, ptr %22, align 8, !tbaa !176
  call void @llvm.lifetime.end.p0(i64 8, ptr %5) #3
  call void @llvm.lifetime.end.p0(i64 8, ptr %4) #3
  ret void
}