; Function Attrs: mustprogress uwtable
define internal fastcc void @_ZSt25__unguarded_linear_insertIN9__gnu_cxx17__normal_iteratorIPPKN5Yosys5RTLIL4CellESt6vectorIS6_SaIS6_EEEENS0_5__ops14_Val_comp_iterIZN12_GLOBAL__N_112CxxrtlWorker21dump_cell_effect_syncERSA_EUlS6_S6_E_EEEvT_T0_(ptr captures(none) %0) unnamed_addr #5 {
  %2 = load ptr, ptr %0, align 8, !tbaa !795
  %.sroa.0.06 = getelementptr inbounds i8, ptr %0, i64 -8
  %3 = load ptr, ptr %.sroa.0.06, align 8, !tbaa !795
  %4 = tail call noundef nonnull align 8 dereferenceable(40) ptr @_ZNK5Yosys5RTLIL4Cell8getParamERKNS0_8IdStringE(ptr noundef nonnull align 8 dereferenceable(192) %2, ptr noundef nonnull align 4 dereferenceable(4) @_ZN5Yosys5RTLIL2ID8PRIORITYE)
  %5 = tail call noundef i32 @_ZNK5Yosys5RTLIL5Const6as_intEb(ptr noundef nonnull align 8 dereferenceable(40) %4, i1 noundef zeroext false)
  %6 = tail call noundef nonnull align 8 dereferenceable(40) ptr @_ZNK5Yosys5RTLIL4Cell8getParamERKNS0_8IdStringE(ptr noundef nonnull align 8 dereferenceable(192) %3, ptr noundef nonnull align 4 dereferenceable(4) @_ZN5Yosys5RTLIL2ID8PRIORITYE)
  %7 = tail call noundef i32 @_ZNK5Yosys5RTLIL5Const6as_intEb(ptr noundef nonnull align 8 dereferenceable(40) %6, i1 noundef zeroext false)
  %8 = icmp sgt i32 %5, %7
  br i1 %8, label %.lr.ph, label %._crit_edge

.lr.ph:                                           ; preds = %1, %.lr.ph
  %.sroa.0.08 = phi ptr [ %.sroa.0.0, %.lr.ph ], [ %.sroa.0.06, %1 ]
  %.sroa.03.07 = phi ptr [ %.sroa.0.08, %.lr.ph ], [ %0, %1 ]
  %9 = load ptr, ptr %.sroa.0.08, align 8, !tbaa !795
  store ptr %9, ptr %.sroa.03.07, align 8, !tbaa !795
  %.sroa.0.0 = getelementptr inbounds i8, ptr %.sroa.0.08, i64 -8
  %10 = load ptr, ptr %.sroa.0.0, align 8, !tbaa !795
  %11 = tail call noundef nonnull align 8 dereferenceable(40) ptr @_ZNK5Yosys5RTLIL4Cell8getParamERKNS0_8IdStringE(ptr noundef nonnull align 8 dereferenceable(192) %2, ptr noundef nonnull align 4 dereferenceable(4) @_ZN5Yosys5RTLIL2ID8PRIORITYE)
  %12 = tail call noundef i32 @_ZNK5Yosys5RTLIL5Const6as_intEb(ptr noundef nonnull align 8 dereferenceable(40) %11, i1 noundef zeroext false)
  %13 = tail call noundef nonnull align 8 dereferenceable(40) ptr @_ZNK5Yosys5RTLIL4Cell8getParamERKNS0_8IdStringE(ptr noundef nonnull align 8 dereferenceable(192) %10, ptr noundef nonnull align 4 dereferenceable(4) @_ZN5Yosys5RTLIL2ID8PRIORITYE)
  %14 = tail call noundef i32 @_ZNK5Yosys5RTLIL5Const6as_intEb(ptr noundef nonnull align 8 dereferenceable(40) %13, i1 noundef zeroext false)
  %15 = icmp sgt i32 %12, %14
  br i1 %15, label %.lr.ph, label %._crit_edge, !llvm.loop !2003

._crit_edge:                                      ; preds = %.lr.ph, %1
  %.sroa.03.0.lcssa = phi ptr [ %0, %1 ], [ %.sroa.0.08, %.lr.ph ]
  store ptr %2, ptr %.sroa.03.0.lcssa, align 8, !tbaa !795
  ret void
}